; Function Attrs: mustprogress uwtable
define void @_ZN8proxygen26PassThroughHTTPCodecFilter10onPriorityEmRKSt5tupleIJmbhEE(ptr nocapture noundef nonnull readonly align 8 dereferenceable(72) %this, i64 noundef %stream, ptr noundef nonnull align 8 dereferenceable(16) %pri) unnamed_addr #3 align 2 {
entry:
  %callback_ = getelementptr inbounds i8, ptr %this, i64 32
  %0 = load ptr, ptr %callback_, align 8
  %vtable = load ptr, ptr %0, align 8
  %vfn = getelementptr inbounds i8, ptr %vtable, i64 152
  %1 = load ptr, ptr %vfn, align 8
  tail call void %1(ptr noundef nonnull align 8 dereferenceable(8) %0, i64 noundef %stream, ptr noundef nonnull align 8 dereferenceable(16) %pri)
  ret void
}